target datalayout = "e-m:e-p270:32:32-p271:32:32-p272:64:64-i64:64-i128:128-f80:128-n8:16:32:64-S128"
target triple = "x86_64-pc-linux-gnu"

%union.cmsInterpFunction = type { ptr }
%struct._cms_interp_struc = type { ptr, i32, i32, i32, [15 x i32], [15 x i32], [15 x i32], ptr, %union.cmsInterpFunction }

@.str = private unnamed_addr constant [46 x i8] c"Too many input channels (%d channels, max=%d)\00", align 1
@.str.1 = private unnamed_addr constant [44 x i8] c"Unsupported interpolation (%d->%d channels)\00", align 1

; Function Attrs: nounwind uwtable
define hidden ptr @_cmsComputeInterpParamsEx(ptr noundef %0, ptr noundef %1, i32 noundef %2, i32 noundef %3, ptr noundef %4, i32 noundef %5) #0 {
  %7 = alloca ptr, align 8
  %8 = alloca ptr, align 8
  %9 = alloca ptr, align 8
  %10 = alloca i32, align 4
  %11 = alloca i32, align 4
  %12 = alloca ptr, align 8
  %13 = alloca i32, align 4
  %14 = alloca ptr, align 8
  %15 = alloca i32, align 4
  store ptr %0, ptr %8, align 8
  store ptr %1, ptr %9, align 8
  store i32 %2, ptr %10, align 4
  store i32 %3, ptr %11, align 4
  store ptr %4, ptr %12, align 8
  store i32 %5, ptr %13, align 4
  %16 = load i32, ptr %10, align 4
  %17 = icmp ugt i32 %16, 15
  br i1 %17, label %18, label %21

18:                                               ; preds = %6
  %19 = load ptr, ptr %8, align 8
  %20 = load i32, ptr %10, align 4
  call void (ptr, i32, ptr, ...) @cmsSignalError(ptr noundef %19, i32 noundef 2, ptr noundef @.str, i32 noundef %20, i32 noundef 15)
  store ptr null, ptr %7, align 8
  br label %120

21:                                               ; preds = %6
  %22 = load ptr, ptr %8, align 8
  %23 = call ptr @_cmsMallocZero(ptr noundef %22, i32 noundef 216)
  store ptr %23, ptr %14, align 8
  %24 = load ptr, ptr %14, align 8
  %25 = icmp eq ptr %24, null
  br i1 %25, label %26, label %27

26:                                               ; preds = %21
  store ptr null, ptr %7, align 8
  br label %120

27:                                               ; preds = %21
  %28 = load i32, ptr %13, align 4
  %29 = load ptr, ptr %14, align 8
  %30 = getelementptr inbounds %struct._cms_interp_struc, ptr %29, i32 0, i32 1
  store i32 %28, ptr %30, align 8
  %31 = load i32, ptr %10, align 4
  %32 = load ptr, ptr %14, align 8
  %33 = getelementptr inbounds %struct._cms_interp_struc, ptr %32, i32 0, i32 2
  store i32 %31, ptr %33, align 4
  %34 = load i32, ptr %11, align 4
  %35 = load ptr, ptr %14, align 8
  %36 = getelementptr inbounds %struct._cms_interp_struc, ptr %35, i32 0, i32 3
  store i32 %34, ptr %36, align 8
  %37 = load ptr, ptr %12, align 8
  %38 = load ptr, ptr %14, align 8
  %39 = getelementptr inbounds %struct._cms_interp_struc, ptr %38, i32 0, i32 7
  store ptr %37, ptr %39, align 8
  %40 = load ptr, ptr %8, align 8
  %41 = load ptr, ptr %14, align 8
  %42 = getelementptr inbounds %struct._cms_interp_struc, ptr %41, i32 0, i32 0
  store ptr %40, ptr %42, align 8
  store i32 0, ptr %15, align 4
  br label %43

43:                                               ; preds = %69, %27
  %44 = load i32, ptr %15, align 4
  %45 = load i32, ptr %10, align 4
  %46 = icmp ult i32 %44, %45
  br i1 %46, label %47, label %72

47:                                               ; preds = %43
  %48 = load ptr, ptr %9, align 8
  %49 = load i32, ptr %15, align 4
  %50 = zext i32 %49 to i64
  %51 = getelementptr inbounds i32, ptr %48, i64 %50
  %52 = load i32, ptr %51, align 4
  %53 = load ptr, ptr %14, align 8
  %54 = getelementptr inbounds %struct._cms_interp_struc, ptr %53, i32 0, i32 4
  %55 = load i32, ptr %15, align 4
  %56 = zext i32 %55 to i64
  %57 = getelementptr inbounds [15 x i32], ptr %54, i64 0, i64 %56
  store i32 %52, ptr %57, align 4
  %58 = load ptr, ptr %9, align 8
  %59 = load i32, ptr %15, align 4
  %60 = zext i32 %59 to i64
  %61 = getelementptr inbounds i32, ptr %58, i64 %60
  %62 = load i32, ptr %61, align 4
  %63 = sub i32 %62, 1
  %64 = load ptr, ptr %14, align 8
  %65 = getelementptr inbounds %struct._cms_interp_struc, ptr %64, i32 0, i32 5
  %66 = load i32, ptr %15, align 4
  %67 = zext i32 %66 to i64
  %68 = getelementptr inbounds [15 x i32], ptr %65, i64 0, i64 %67
  store i32 %63, ptr %68, align 4
  br label %69

69:                                               ; preds = %47
  %70 = load i32, ptr %15, align 4
  %71 = add i32 %70, 1
  store i32 %71, ptr %15, align 4
  br label %43, !llvm.loop !6

72:                                               ; preds = %43
  %73 = load ptr, ptr %14, align 8
  %74 = getelementptr inbounds %struct._cms_interp_struc, ptr %73, i32 0, i32 3
  %75 = load i32, ptr %74, align 8
  %76 = load ptr, ptr %14, align 8
  %77 = getelementptr inbounds %struct._cms_interp_struc, ptr %76, i32 0, i32 6
  %78 = getelementptr inbounds [15 x i32], ptr %77, i64 0, i64 0
  store i32 %75, ptr %78, align 4
  store i32 1, ptr %15, align 4
  br label %79

79:                                               ; preds = %104, %72
  %80 = load i32, ptr %15, align 4
  %81 = load i32, ptr %10, align 4
  %82 = icmp ult i32 %80, %81
  br i1 %82, label %83, label %107

83:                                               ; preds = %79
  %84 = load ptr, ptr %14, align 8
  %85 = getelementptr inbounds %struct._cms_interp_struc, ptr %84, i32 0, i32 6
  %86 = load i32, ptr %15, align 4
  %87 = sub i32 %86, 1
  %88 = zext i32 %87 to i64
  %89 = getelementptr inbounds [15 x i32], ptr %85, i64 0, i64 %88
  %90 = load i32, ptr %89, align 4
  %91 = load ptr, ptr %9, align 8
  %92 = load i32, ptr %10, align 4
  %93 = load i32, ptr %15, align 4
  %94 = sub i32 %92, %93
  %95 = zext i32 %94 to i64
  %96 = getelementptr inbounds i32, ptr %91, i64 %95
  %97 = load i32, ptr %96, align 4
  %98 = mul i32 %90, %97
  %99 = load ptr, ptr %14, align 8
  %100 = getelementptr inbounds %struct._cms_interp_struc, ptr %99, i32 0, i32 6
  %101 = load i32, ptr %15, align 4
  %102 = zext i32 %101 to i64
  %103 = getelementptr inbounds [15 x i32], ptr %100, i64 0, i64 %102
  store i32 %98, ptr %103, align 4
  br label %104

104:                                              ; preds = %83
  %105 = load i32, ptr %15, align 4
  %106 = add i32 %105, 1
  store i32 %106, ptr %15, align 4
  br label %79, !llvm.loop !8

107:                                              ; preds = %79
  %108 = load ptr, ptr %8, align 8
  %109 = load ptr, ptr %14, align 8
  %110 = call i32 @_cmsSetInterpolationRoutine(ptr noundef %108, ptr noundef %109)
  %111 = icmp ne i32 %110, 0
  br i1 %111, label %118, label %112

112:                                              ; preds = %107
  %113 = load ptr, ptr %8, align 8
  %114 = load i32, ptr %10, align 4
  %115 = load i32, ptr %11, align 4
  call void (ptr, i32, ptr, ...) @cmsSignalError(ptr noundef %113, i32 noundef 8, ptr noundef @.str.1, i32 noundef %114, i32 noundef %115)
  %116 = load ptr, ptr %8, align 8
  %117 = load ptr, ptr %14, align 8
  call void @_cmsFree(ptr noundef %116, ptr noundef %117)
  store ptr null, ptr %7, align 8
  br label %120

118:                                              ; preds = %107
  %119 = load ptr, ptr %14, align 8
  store ptr %119, ptr %7, align 8
  br label %120

120:                                              ; preds = %118, %112, %26, %18
  %121 = load ptr, ptr %7, align 8
  ret ptr %121
}