; Function Attrs: nounwind uwtable
define hidden ptr @_cmsComputeInterpParamsEx(ptr noundef %0, ptr nocapture noundef readonly %1, i32 noundef %2, i32 noundef %3, ptr noundef %4, i32 noundef %5) local_unnamed_addr #0 {
  %7 = icmp ugt i32 %2, 15
  br i1 %7, label %8, label %9

8:                                                ; preds = %6
  tail call void (ptr, i32, ptr, ...) @cmsSignalError(ptr noundef %0, i32 noundef 2, ptr noundef nonnull @.str, i32 noundef %2, i32 noundef 15) #9
  br label %37

9:                                                ; preds = %6
  %10 = tail call ptr @_cmsMallocZero(ptr noundef %0, i32 noundef 216) #9
  %11 = icmp eq ptr %10, null
  br i1 %11, label %37, label %12

12:                                               ; preds = %9
  %13 = getelementptr inbounds i8, ptr %10, i64 8
  store i32 %5, ptr %13, align 8
  %14 = getelementptr inbounds i8, ptr %10, i64 12
  store i32 %2, ptr %14, align 4
  %15 = getelementptr inbounds i8, ptr %10, i64 16
  store i32 %3, ptr %15, align 8
  %16 = getelementptr inbounds i8, ptr %10, i64 200
  store ptr %4, ptr %16, align 8
  store ptr %0, ptr %10, align 8
  %.not55 = icmp eq i32 %2, 0
  br i1 %.not55, label %._crit_edge.thread, label %.lr.ph

._crit_edge.thread:                               ; preds = %12
  %17 = getelementptr inbounds i8, ptr %10, i64 140
  store i32 %3, ptr %17, align 4
  br label %._crit_edge54

.lr.ph:                                           ; preds = %12
  %18 = getelementptr inbounds i8, ptr %10, i64 20
  %19 = getelementptr inbounds i8, ptr %10, i64 80
  %wide.trip.count = zext nneg i32 %2 to i64
  br label %20

20:                                               ; preds = %.lr.ph, %20
  %indvars.iv = phi i64 [ 0, %.lr.ph ], [ %indvars.iv.next, %20 ]
  %21 = getelementptr inbounds i32, ptr %1, i64 %indvars.iv
  %22 = load i32, ptr %21, align 4
  %23 = getelementptr inbounds [15 x i32], ptr %18, i64 0, i64 %indvars.iv
  store i32 %22, ptr %23, align 4
  %24 = add i32 %22, -1
  %25 = getelementptr inbounds [15 x i32], ptr %19, i64 0, i64 %indvars.iv
  store i32 %24, ptr %25, align 4
  %indvars.iv.next = add nuw nsw i64 %indvars.iv, 1
  %exitcond.not = icmp eq i64 %indvars.iv.next, %wide.trip.count
  br i1 %exitcond.not, label %._crit_edge, label %20, !llvm.loop !6

._crit_edge:                                      ; preds = %20
  %26 = getelementptr inbounds i8, ptr %10, i64 140
  store i32 %3, ptr %26, align 4
  %.not62 = icmp eq i32 %2, 1
  br i1 %.not62, label %._crit_edge54, label %.lr.ph53.preheader

.lr.ph53.preheader:                               ; preds = %._crit_edge
  %wide.trip.count60 = zext nneg i32 %2 to i64
  br label %.lr.ph53

.lr.ph53:                                         ; preds = %.lr.ph53.preheader, %.lr.ph53
  %27 = phi i32 [ %3, %.lr.ph53.preheader ], [ %33, %.lr.ph53 ]
  %indvars.iv57 = phi i64 [ 1, %.lr.ph53.preheader ], [ %indvars.iv.next58, %.lr.ph53 ]
  %28 = trunc i64 %indvars.iv57 to i32
  %29 = sub i32 %2, %28
  %30 = zext i32 %29 to i64
  %31 = getelementptr inbounds i32, ptr %1, i64 %30
  %32 = load i32, ptr %31, align 4
  %33 = mul i32 %32, %27
  %34 = getelementptr inbounds [15 x i32], ptr %26, i64 0, i64 %indvars.iv57
  store i32 %33, ptr %34, align 4
  %indvars.iv.next58 = add nuw nsw i64 %indvars.iv57, 1
  %exitcond61.not = icmp eq i64 %indvars.iv.next58, %wide.trip.count60
  br i1 %exitcond61.not, label %._crit_edge54, label %.lr.ph53, !llvm.loop !8

._crit_edge54:                                    ; preds = %.lr.ph53, %._crit_edge.thread, %._crit_edge
  %35 = tail call i32 @_cmsSetInterpolationRoutine(ptr noundef %0, ptr noundef nonnull %10)
  %.not = icmp eq i32 %35, 0
  br i1 %.not, label %36, label %37

36:                                               ; preds = %._crit_edge54
  tail call void (ptr, i32, ptr, ...) @cmsSignalError(ptr noundef %0, i32 noundef 8, ptr noundef nonnull @.str.1, i32 noundef %2, i32 noundef %3) #9
  tail call void @_cmsFree(ptr noundef %0, ptr noundef nonnull %10) #9
  br label %37

37:                                               ; preds = %._crit_edge54, %9, %36, %8
  %.046 = phi ptr [ null, %8 ], [ null, %36 ], [ null, %9 ], [ %10, %._crit_edge54 ]
  ret ptr %.046
}